; Function Attrs: nounwind uwtable
define hidden void @timelib_update_from_sse(ptr noundef captures(none) initializes((0, 48), (208, 212), (220, 232)) %0) local_unnamed_addr #3 {
  %2 = alloca i32, align 4
  %3 = getelementptr inbounds nuw i8, ptr %0, i64 56
  %4 = load i32, ptr %3, align 8, !tbaa !18
  %5 = getelementptr inbounds nuw i8, ptr %0, i64 80
  %6 = load i32, ptr %5, align 8, !tbaa !19
  %7 = getelementptr inbounds nuw i8, ptr %0, i64 192
  %8 = load i64, ptr %7, align 8, !tbaa !20
  %9 = getelementptr inbounds nuw i8, ptr %0, i64 232
  %10 = load i32, ptr %9, align 8, !tbaa !24
  switch i32 %10, label %119 [
    i32 2, label %11
    i32 1, label %11
    i32 3, label %64
  ]

11:                                               ; preds = %1, %1
  %12 = sext i32 %4 to i64
  %13 = add i64 %8, %12
  %14 = mul i32 %6, 3600
  %15 = sext i32 %14 to i64
  %16 = add i64 %13, %15
  %17 = getelementptr inbounds nuw i8, ptr %0, i64 8
  %18 = getelementptr inbounds nuw i8, ptr %0, i64 16
  %19 = sdiv i64 %16, 86400
  %20 = add nsw i64 %19, 719468
  %21 = srem i64 %16, 86400
  %.lobit.i.i = ashr i64 %21, 63
  %22 = add nsw i64 %20, %.lobit.i.i
  %23 = add nsw i64 %22, -146096
  %24 = icmp slt i64 %22, 0
  %25 = select i1 %24, i64 %23, i64 %22
  %26 = sdiv i64 %25, 146097
  %.neg.i.i = mul nsw i64 %26, -146097
  %27 = add nsw i64 %.neg.i.i, %22
  %28 = udiv i64 %27, 1460
  %29 = udiv i64 %27, 36524
  %30 = udiv i64 %27, 146096
  %.neg53 = add nsw i64 %29, %27
  %31 = add nuw nsw i64 %30, %28
  %32 = sub nsw i64 %.neg53, %31
  %33 = udiv i64 %32, 365
  %34 = mul nsw i64 %26, 400
  %35 = add nsw i64 %33, %34
  %36 = udiv i64 %32, 1460
  %37 = udiv i64 %32, 36500
  %.neg35.i.i = mul i64 %33, -365
  %.neg36.i.i = sub nsw i64 %27, %36
  %.neg28.i.i = add nsw i64 %.neg36.i.i, %37
  %38 = add i64 %.neg28.i.i, %.neg35.i.i
  %39 = mul i64 %38, 5
  %40 = add i64 %39, 2
  %41 = udiv i64 %40, 153
  %42 = mul nuw i64 %41, 153
  %43 = add nuw i64 %42, 2
  %44 = udiv i64 %43, 5
  %45 = add i64 %38, 1
  %46 = sub i64 %45, %44
  store i64 %46, ptr %18, align 8, !tbaa !4
  %47 = icmp ult i64 %40, 1530
  %48 = select i1 %47, i64 3, i64 -9
  %49 = add nsw i64 %48, %41
  store i64 %49, ptr %17, align 8, !tbaa !4
  %50 = icmp slt i64 %49, 3
  %51 = zext i1 %50 to i64
  %52 = add nsw i64 %35, %51
  store i64 %52, ptr %0, align 8, !tbaa !4
  %isneg.i = icmp slt i64 %21, 0
  %53 = select i1 %isneg.i, i64 86400, i64 0
  %54 = add nsw i64 %53, %21
  %.lhs.trunc.i = trunc nsw i64 %54 to i32
  %55 = udiv i32 %.lhs.trunc.i, 3600
  %.zext.i = zext nneg i32 %55 to i64
  %.neg.i = mul nuw nsw i64 %.zext.i, 4294963696
  %56 = add nuw nsw i64 %.neg.i, %54
  %.lhs.trunc23.i = trunc i64 %56 to i32
  %57 = sdiv i32 %.lhs.trunc23.i, 60
  %.sext.i = sext i32 %57 to i64
  %58 = urem i32 %.lhs.trunc.i, 60
  %.zext25.i = zext nneg i32 %58 to i64
  %59 = getelementptr inbounds nuw i8, ptr %0, i64 24
  store i64 %.zext.i, ptr %59, align 8, !tbaa !8
  %60 = getelementptr inbounds nuw i8, ptr %0, i64 32
  store i64 %.sext.i, ptr %60, align 8, !tbaa !16
  %61 = getelementptr inbounds nuw i8, ptr %0, i64 40
  store i64 %.zext25.i, ptr %61, align 8, !tbaa !17
  %62 = getelementptr inbounds nuw i8, ptr %0, i64 220
  store i32 1, ptr %62, align 4, !tbaa !21
  %63 = getelementptr inbounds nuw i8, ptr %0, i64 224
  store i32 1, ptr %63, align 8, !tbaa !22
  br label %167

64:                                               ; preds = %1
  call void @llvm.lifetime.start.p0(i64 4, ptr nonnull %2) #5
  store i32 0, ptr %2, align 4, !tbaa !25
  %65 = getelementptr inbounds nuw i8, ptr %0, i64 72
  %66 = load ptr, ptr %65, align 8, !tbaa !26
  %67 = call i32 @timelib_get_time_zone_offset_info(i64 noundef %8, ptr noundef %66, ptr noundef nonnull %2, ptr noundef null, ptr noundef null) #5
  %68 = load i64, ptr %7, align 8, !tbaa !20
  %69 = load i32, ptr %2, align 4, !tbaa !25
  %70 = sext i32 %69 to i64
  %71 = add i64 %68, %70
  %72 = getelementptr inbounds nuw i8, ptr %0, i64 8
  %73 = getelementptr inbounds nuw i8, ptr %0, i64 16
  %74 = sdiv i64 %71, 86400
  %75 = add nsw i64 %74, 719468
  %76 = srem i64 %71, 86400
  %.lobit.i.i21 = ashr i64 %76, 63
  %77 = add nsw i64 %75, %.lobit.i.i21
  %78 = add nsw i64 %77, -146096
  %79 = icmp slt i64 %77, 0
  %80 = select i1 %79, i64 %78, i64 %77
  %81 = sdiv i64 %80, 146097
  %.neg.i.i22 = mul nsw i64 %81, -146097
  %82 = add nsw i64 %.neg.i.i22, %77
  %83 = udiv i64 %82, 1460
  %84 = udiv i64 %82, 36524
  %85 = udiv i64 %82, 146096
  %.neg48 = add nsw i64 %84, %82
  %86 = add nuw nsw i64 %85, %83
  %87 = sub nsw i64 %.neg48, %86
  %88 = udiv i64 %87, 365
  %89 = mul nsw i64 %81, 400
  %90 = add nsw i64 %88, %89
  %91 = udiv i64 %87, 1460
  %92 = udiv i64 %87, 36500
  %.neg35.i.i24 = mul i64 %88, -365
  %.neg36.i.i25 = sub nsw i64 %82, %91
  %.neg28.i.i26 = add nsw i64 %.neg36.i.i25, %92
  %93 = add i64 %.neg28.i.i26, %.neg35.i.i24
  %94 = mul i64 %93, 5
  %95 = add i64 %94, 2
  %96 = udiv i64 %95, 153
  %97 = mul nuw i64 %96, 153
  %98 = add nuw i64 %97, 2
  %99 = udiv i64 %98, 5
  %100 = add i64 %93, 1
  %101 = sub i64 %100, %99
  store i64 %101, ptr %73, align 8, !tbaa !4
  %102 = icmp ult i64 %95, 1530
  %103 = select i1 %102, i64 3, i64 -9
  %104 = add nsw i64 %103, %96
  store i64 %104, ptr %72, align 8, !tbaa !4
  %105 = icmp slt i64 %104, 3
  %106 = zext i1 %105 to i64
  %107 = add nsw i64 %90, %106
  store i64 %107, ptr %0, align 8, !tbaa !4
  %isneg.i27 = icmp slt i64 %76, 0
  %108 = select i1 %isneg.i27, i64 86400, i64 0
  %109 = add nsw i64 %108, %76
  %.lhs.trunc.i28 = trunc nsw i64 %109 to i32
  %110 = udiv i32 %.lhs.trunc.i28, 3600
  %.zext.i29 = zext nneg i32 %110 to i64
  %.neg.i30 = mul nuw nsw i64 %.zext.i29, 4294963696
  %111 = add nuw nsw i64 %.neg.i30, %109
  %.lhs.trunc23.i31 = trunc i64 %111 to i32
  %112 = sdiv i32 %.lhs.trunc23.i31, 60
  %.sext.i32 = sext i32 %112 to i64
  %113 = urem i32 %.lhs.trunc.i28, 60
  %.zext25.i33 = zext nneg i32 %113 to i64
  %114 = getelementptr inbounds nuw i8, ptr %0, i64 24
  store i64 %.zext.i29, ptr %114, align 8, !tbaa !8
  %115 = getelementptr inbounds nuw i8, ptr %0, i64 32
  store i64 %.sext.i32, ptr %115, align 8, !tbaa !16
  %116 = getelementptr inbounds nuw i8, ptr %0, i64 40
  store i64 %.zext25.i33, ptr %116, align 8, !tbaa !17
  store i64 %71, ptr %7, align 8, !tbaa !20
  %117 = getelementptr inbounds nuw i8, ptr %0, i64 220
  store i32 1, ptr %117, align 4, !tbaa !21
  %118 = getelementptr inbounds nuw i8, ptr %0, i64 224
  store i32 1, ptr %118, align 8, !tbaa !22
  call void @llvm.lifetime.end.p0(i64 4, ptr nonnull %2) #5
  br label %167

119:                                              ; preds = %1
  %120 = getelementptr inbounds nuw i8, ptr %0, i64 8
  %121 = getelementptr inbounds nuw i8, ptr %0, i64 16
  %122 = sdiv i64 %8, 86400
  %123 = add nsw i64 %122, 719468
  %124 = srem i64 %8, 86400
  %.lobit.i.i34 = ashr i64 %124, 63
  %125 = add nsw i64 %123, %.lobit.i.i34
  %126 = add nsw i64 %125, -146096
  %127 = icmp slt i64 %125, 0
  %128 = select i1 %127, i64 %126, i64 %125
  %129 = sdiv i64 %128, 146097
  %.neg.i.i35 = mul nsw i64 %129, -146097
  %130 = add nsw i64 %.neg.i.i35, %125
  %131 = udiv i64 %130, 1460
  %132 = udiv i64 %130, 36524
  %133 = udiv i64 %130, 146096
  %.neg58 = add nsw i64 %132, %130
  %134 = add nuw nsw i64 %133, %131
  %135 = sub nsw i64 %.neg58, %134
  %136 = udiv i64 %135, 365
  %137 = mul nsw i64 %129, 400
  %138 = add nsw i64 %136, %137
  %139 = udiv i64 %135, 1460
  %140 = udiv i64 %135, 36500
  %.neg35.i.i37 = mul i64 %136, -365
  %.neg36.i.i38 = sub nsw i64 %130, %139
  %.neg28.i.i39 = add nsw i64 %.neg36.i.i38, %140
  %141 = add i64 %.neg28.i.i39, %.neg35.i.i37
  %142 = mul i64 %141, 5
  %143 = add i64 %142, 2
  %144 = udiv i64 %143, 153
  %145 = mul nuw i64 %144, 153
  %146 = add nuw i64 %145, 2
  %147 = udiv i64 %146, 5
  %148 = add i64 %141, 1
  %149 = sub i64 %148, %147
  store i64 %149, ptr %121, align 8, !tbaa !4
  %150 = icmp ult i64 %143, 1530
  %151 = select i1 %150, i64 3, i64 -9
  %152 = add nsw i64 %151, %144
  store i64 %152, ptr %120, align 8, !tbaa !4
  %153 = icmp slt i64 %152, 3
  %154 = zext i1 %153 to i64
  %155 = add nsw i64 %138, %154
  store i64 %155, ptr %0, align 8, !tbaa !4
  %isneg.i40 = icmp slt i64 %124, 0
  %156 = select i1 %isneg.i40, i64 86400, i64 0
  %157 = add nsw i64 %156, %124
  %.lhs.trunc.i41 = trunc nsw i64 %157 to i32
  %158 = udiv i32 %.lhs.trunc.i41, 3600
  %.zext.i42 = zext nneg i32 %158 to i64
  %.neg.i43 = mul nuw nsw i64 %.zext.i42, 4294963696
  %159 = add nuw nsw i64 %.neg.i43, %157
  %.lhs.trunc23.i44 = trunc i64 %159 to i32
  %160 = sdiv i32 %.lhs.trunc23.i44, 60
  %.sext.i45 = sext i32 %160 to i64
  %161 = urem i32 %.lhs.trunc.i41, 60
  %.zext25.i46 = zext nneg i32 %161 to i64
  %162 = getelementptr inbounds nuw i8, ptr %0, i64 24
  store i64 %.zext.i42, ptr %162, align 8, !tbaa !8
  %163 = getelementptr inbounds nuw i8, ptr %0, i64 32
  store i64 %.sext.i45, ptr %163, align 8, !tbaa !16
  %164 = getelementptr inbounds nuw i8, ptr %0, i64 40
  store i64 %.zext25.i46, ptr %164, align 8, !tbaa !17
  %165 = getelementptr inbounds nuw i8, ptr %0, i64 220
  store i32 1, ptr %165, align 4, !tbaa !21
  %166 = getelementptr inbounds nuw i8, ptr %0, i64 224
  store i32 1, ptr %166, align 8, !tbaa !22
  br label %167

167:                                              ; preds = %119, %64, %11
  store i64 %8, ptr %7, align 8, !tbaa !20
  %168 = getelementptr inbounds nuw i8, ptr %0, i64 228
  store i32 1, ptr %168, align 4, !tbaa !23
  %169 = getelementptr inbounds nuw i8, ptr %0, i64 208
  store i32 1, ptr %169, align 8, !tbaa !27
  store i32 %4, ptr %3, align 8, !tbaa !18
  store i32 %6, ptr %5, align 8, !tbaa !19
  ret void
}